; Function Attrs: mustprogress uwtable
define dso_local void @_ZN16cmCursesMainForm8AddErrorERKNSt7__cxx1112basic_stringIcSt11char_traitsIcESaIcEEEPKc(ptr noundef nonnull align 8 dereferenceable(297) %0, ptr noundef nonnull align 8 dereferenceable(32) %1, ptr nocapture readnone %2) unnamed_addr #3 align 2 {
  %4 = getelementptr inbounds i8, ptr %0, i64 56
  %5 = load ptr, ptr %4, align 8
  %6 = getelementptr inbounds i8, ptr %0, i64 64
  %7 = load ptr, ptr %6, align 8
  %.not.i = icmp eq ptr %5, %7
  br i1 %.not.i, label %11, label %8

8:                                                ; preds = %3
  tail call void @_ZNSt7__cxx1112basic_stringIcSt11char_traitsIcESaIcEEC1ERKS4_(ptr noundef nonnull align 8 dereferenceable(32) %5, ptr noundef nonnull align 8 dereferenceable(32) %1)
  %9 = load ptr, ptr %4, align 8
  %10 = getelementptr inbounds i8, ptr %9, i64 32
  store ptr %10, ptr %4, align 8
  br label %_ZNSt6vectorINSt7__cxx1112basic_stringIcSt11char_traitsIcESaIcEEESaIS5_EE12emplace_backIJRKS5_EEERS5_DpOT_.exit

11:                                               ; preds = %3
  %12 = getelementptr inbounds i8, ptr %0, i64 48
  tail call void @_ZNSt6vectorINSt7__cxx1112basic_stringIcSt11char_traitsIcESaIcEEESaIS5_EE17_M_realloc_insertIJRKS5_EEEvN9__gnu_cxx17__normal_iteratorIPS5_S7_EEDpOT_(ptr noundef nonnull align 8 dereferenceable(24) %12, ptr %5, ptr noundef nonnull align 8 dereferenceable(32) %1)
  br label %_ZNSt6vectorINSt7__cxx1112basic_stringIcSt11char_traitsIcESaIcEEESaIS5_EE12emplace_backIJRKS5_EEERS5_DpOT_.exit

_ZNSt6vectorINSt7__cxx1112basic_stringIcSt11char_traitsIcESaIcEEESaIS5_EE12emplace_backIJRKS5_EEERS5_DpOT_.exit: ; preds = %8, %11
  %13 = getelementptr inbounds i8, ptr %0, i64 72
  store i8 1, ptr %13, align 8
  tail call void @_ZN16cmCursesMainForm14DisplayOutputsERKNSt7__cxx1112basic_stringIcSt11char_traitsIcESaIcEEE(ptr noundef nonnull align 8 dereferenceable(297) %0, ptr noundef nonnull align 8 dereferenceable(32) %1)
  ret void
}